; Function Attrs: nounwind uwtable
define internal fastcc noundef ptr @next_entry(ptr noundef captures(none) %0, i32 noundef range(i32 1, 4) %1) unnamed_addr #4 {
  %3 = getelementptr inbounds nuw i8, ptr %0, i64 8
  %4 = load ptr, ptr %3, align 8, !tbaa !15
  %.not = icmp eq ptr %4, null
  br i1 %.not, label %12, label %5

5:                                                ; preds = %2
  %6 = getelementptr inbounds nuw i8, ptr %4, i64 16
  %7 = load ptr, ptr %6, align 8, !tbaa !16
  tail call void @archive_entry_free(ptr noundef %7) #7
  %8 = load ptr, ptr %3, align 8, !tbaa !15
  %9 = getelementptr inbounds nuw i8, ptr %8, i64 24
  %10 = load ptr, ptr %9, align 8, !tbaa !19
  tail call void @archive_entry_free(ptr noundef %10) #7
  %11 = load ptr, ptr %3, align 8, !tbaa !15
  tail call void @free(ptr noundef %11) #7
  store ptr null, ptr %3, align 8, !tbaa !15
  br label %12

12:                                               ; preds = %5, %2
  %13 = getelementptr inbounds nuw i8, ptr %0, i64 24
  %14 = load i64, ptr %13, align 8, !tbaa !4
  %.not94 = icmp eq i64 %14, 0
  br i1 %.not94, label %.loopexit, label %.lr.ph68

.lr.ph68:                                         ; preds = %12
  %15 = load ptr, ptr %0, align 8, !tbaa !13
  %16 = and i32 %1, 1
  %17 = icmp eq i32 %16, 0
  %18 = icmp samesign ult i32 %1, 2
  br i1 %17, label %.lr.ph68.split.us, label %.lr.ph68.split

.lr.ph68.split.us:                                ; preds = %.lr.ph68
  br i1 %18, label %.loopexit, label %.lr.ph68.split.us.split

.lr.ph68.split.us.split:                          ; preds = %.lr.ph68.split.us, %._crit_edge.split.split.us73
  %.064.us = phi i64 [ %23, %._crit_edge.split.split.us73 ], [ 0, %.lr.ph68.split.us ]
  %19 = getelementptr inbounds nuw ptr, ptr %15, i64 %.064.us
  %.02941.us = load ptr, ptr %19, align 8, !tbaa !20
  %.not3442.us = icmp eq ptr %.02941.us, null
  br i1 %.not3442.us, label %._crit_edge.split.split.us73, label %.lr.ph.us

.lr.ph.us:                                        ; preds = %.lr.ph68.split.us.split, %22
  %.02943.us69 = phi ptr [ %.029.us71, %22 ], [ %.02941.us, %.lr.ph68.split.us.split ]
  %20 = getelementptr inbounds nuw i8, ptr %.02943.us69, i64 24
  %21 = load ptr, ptr %20, align 8, !tbaa !19
  %.not35.us70.not = icmp eq ptr %21, null
  br i1 %.not35.us70.not, label %.split.us, label %22

22:                                               ; preds = %.lr.ph.us
  %.029.us71 = load ptr, ptr %.02943.us69, align 8, !tbaa !20
  %.not34.us72 = icmp eq ptr %.029.us71, null
  br i1 %.not34.us72, label %._crit_edge.split.split.us73, label %.lr.ph.us, !llvm.loop !27

._crit_edge.split.split.us73:                     ; preds = %22, %.lr.ph68.split.us.split
  %23 = add nuw i64 %.064.us, 1
  %exitcond105.not = icmp eq i64 %23, %14
  br i1 %exitcond105.not, label %.loopexit, label %.lr.ph68.split.us.split, !llvm.loop !23

.lr.ph68.split:                                   ; preds = %.lr.ph68
  br i1 %18, label %.lr.ph68.split.split.us, label %.lr.ph68.split.split

.lr.ph68.split.split.us:                          ; preds = %.lr.ph68.split, %._crit_edge.split.us.us
  %.064.us82 = phi i64 [ %25, %._crit_edge.split.us.us ], [ 0, %.lr.ph68.split ]
  %24 = getelementptr inbounds nuw ptr, ptr %15, i64 %.064.us82
  %.02941.us83 = load ptr, ptr %24, align 8, !tbaa !20
  %.not3442.us84 = icmp eq ptr %.02941.us83, null
  br i1 %.not3442.us84, label %._crit_edge.split.us.us, label %.lr.ph.us85

._crit_edge.split.us.us:                          ; preds = %29, %.lr.ph68.split.split.us
  %25 = add nuw i64 %.064.us82, 1
  %exitcond104.not = icmp eq i64 %25, %14
  br i1 %exitcond104.not, label %.loopexit, label %.lr.ph68.split.split.us, !llvm.loop !23

.lr.ph.us85:                                      ; preds = %.lr.ph68.split.split.us, %29
  %.02943.us.us86 = phi ptr [ %.029.us.us, %29 ], [ %.02941.us83, %.lr.ph68.split.split.us ]
  %26 = getelementptr inbounds nuw i8, ptr %.02943.us.us86, i64 24
  %27 = load ptr, ptr %26, align 8, !tbaa !19
  %28 = icmp eq ptr %27, null
  br i1 %28, label %29, label %.split.us

29:                                               ; preds = %.lr.ph.us85
  %.029.us.us = load ptr, ptr %.02943.us.us86, align 8, !tbaa !20
  %.not34.us.us = icmp eq ptr %.029.us.us, null
  br i1 %.not34.us.us, label %._crit_edge.split.us.us, label %.lr.ph.us85, !llvm.loop !27

.lr.ph68.split.split:                             ; preds = %.lr.ph68.split, %41
  %.064 = phi i64 [ %42, %41 ], [ 0, %.lr.ph68.split ]
  %30 = getelementptr inbounds nuw ptr, ptr %15, i64 %.064
  %.02941 = load ptr, ptr %30, align 8, !tbaa !20
  %.not3442 = icmp eq ptr %.02941, null
  br i1 %.not3442, label %41, label %.split.us

.split.us:                                        ; preds = %.lr.ph68.split.split, %.lr.ph.us85, %.lr.ph.us
  %.064.lcssa.sink = phi i64 [ %.064.us, %.lr.ph.us ], [ %.064.us82, %.lr.ph.us85 ], [ %.064, %.lr.ph68.split.split ]
  %.us-phi44 = phi ptr [ %.02943.us69, %.lr.ph.us ], [ %.02943.us.us86, %.lr.ph.us85 ], [ %.02941, %.lr.ph68.split.split ]
  %31 = getelementptr inbounds nuw ptr, ptr %15, i64 %.064.lcssa.sink
  %32 = load ptr, ptr %.us-phi44, align 8, !tbaa !21
  %.not36 = icmp eq ptr %32, null
  %.phi.trans.insert = getelementptr inbounds nuw i8, ptr %.us-phi44, i64 8
  %.pre = load ptr, ptr %.phi.trans.insert, align 8, !tbaa !22
  br i1 %.not36, label %.split.us._crit_edge, label %33

33:                                               ; preds = %.split.us
  %34 = getelementptr inbounds nuw i8, ptr %32, i64 8
  store ptr %.pre, ptr %34, align 8, !tbaa !22
  br label %.split.us._crit_edge

.split.us._crit_edge:                             ; preds = %.split.us, %33
  %.not37 = icmp eq ptr %.pre, null
  br i1 %.not37, label %36, label %35

35:                                               ; preds = %.split.us._crit_edge
  store ptr %32, ptr %.pre, align 8, !tbaa !21
  br label %37

36:                                               ; preds = %.split.us._crit_edge
  store ptr %32, ptr %31, align 8, !tbaa !20
  br label %37

37:                                               ; preds = %36, %35
  %38 = getelementptr inbounds nuw i8, ptr %0, i64 16
  %39 = load i64, ptr %38, align 8, !tbaa !25
  %40 = add i64 %39, -1
  store i64 %40, ptr %38, align 8, !tbaa !25
  store ptr %.us-phi44, ptr %3, align 8, !tbaa !15
  br label %.loopexit

41:                                               ; preds = %.lr.ph68.split.split
  %42 = add nuw i64 %.064, 1
  %exitcond.not = icmp eq i64 %42, %14
  br i1 %exitcond.not, label %.loopexit, label %.lr.ph68.split.split, !llvm.loop !23

.loopexit:                                        ; preds = %41, %._crit_edge.split.us.us, %._crit_edge.split.split.us73, %.lr.ph68.split.us, %12, %37
  %.030 = phi ptr [ %.us-phi44, %37 ], [ null, %12 ], [ null, %.lr.ph68.split.us ], [ null, %._crit_edge.split.split.us73 ], [ null, %._crit_edge.split.us.us ], [ null, %41 ]
  ret ptr %.030
}